target datalayout = "e-m:e-p270:32:32-p271:32:32-p272:64:64-i64:64-i128:128-f80:128-n8:16:32:64-S128"
target triple = "x86_64-pc-linux-gnu"

%struct._fragment_head = type { ptr, ptr, i32, i32, i32, i32, i32, i32, i32, i8, i32, ptr, ptr }
%struct._fragment_item = type { ptr, i32, i32, i32, i32, ptr }

; Function Attrs: null_pointer_is_valid sspstrong uwtable
define internal void @free_fd_head(ptr noundef %0) #1 {
  %2 = alloca ptr, align 8
  %3 = alloca ptr, align 8
  %4 = alloca ptr, align 8
  store ptr %0, ptr %2, align 8
  call void @llvm.lifetime.start.p0(i64 8, ptr %3) #16
  call void @llvm.lifetime.start.p0(i64 8, ptr %4) #16
  %5 = load ptr, ptr %2, align 8
  %6 = getelementptr inbounds nuw %struct._fragment_head, ptr %5, i32 0, i32 10
  %7 = load i32, ptr %6, align 8
  %8 = and i32 %7, 32
  %9 = icmp ne i32 %8, 0
  br i1 %9, label %10, label %13

10:                                               ; preds = %1
  %11 = load ptr, ptr %2, align 8
  %12 = getelementptr inbounds nuw %struct._fragment_head, ptr %11, i32 0, i32 11
  store ptr null, ptr %12, align 8
  br label %13

13:                                               ; preds = %10, %1
  %14 = load ptr, ptr %2, align 8
  %15 = getelementptr inbounds nuw %struct._fragment_head, ptr %14, i32 0, i32 11
  %16 = load ptr, ptr %15, align 8
  %17 = icmp ne ptr %16, null
  br i1 %17, label %18, label %22

18:                                               ; preds = %13
  %19 = load ptr, ptr %2, align 8
  %20 = getelementptr inbounds nuw %struct._fragment_head, ptr %19, i32 0, i32 11
  %21 = load ptr, ptr %20, align 8
  call void @tvb_free(ptr noundef %21)
  br label %22

22:                                               ; preds = %18, %13
  %23 = load ptr, ptr %2, align 8
  %24 = getelementptr inbounds nuw %struct._fragment_head, ptr %23, i32 0, i32 0
  %25 = load ptr, ptr %24, align 8
  store ptr %25, ptr %3, align 8
  br label %26

26:                                               ; preds = %55, %22
  %27 = load ptr, ptr %3, align 8
  %28 = icmp ne ptr %27, null
  br i1 %28, label %29, label %57

29:                                               ; preds = %26
  %30 = load ptr, ptr %3, align 8
  %31 = getelementptr inbounds nuw %struct._fragment_item, ptr %30, i32 0, i32 0
  %32 = load ptr, ptr %31, align 8
  store ptr %32, ptr %4, align 8
  %33 = load ptr, ptr %3, align 8
  %34 = getelementptr inbounds nuw %struct._fragment_item, ptr %33, i32 0, i32 4
  %35 = load i32, ptr %34, align 4
  %36 = and i32 %35, 32
  %37 = icmp ne i32 %36, 0
  br i1 %37, label %38, label %41

38:                                               ; preds = %29
  %39 = load ptr, ptr %3, align 8
  %40 = getelementptr inbounds nuw %struct._fragment_item, ptr %39, i32 0, i32 5
  store ptr null, ptr %40, align 8
  br label %41

41:                                               ; preds = %38, %29
  %42 = load ptr, ptr %3, align 8
  %43 = getelementptr inbounds nuw %struct._fragment_item, ptr %42, i32 0, i32 5
  %44 = load ptr, ptr %43, align 8
  %45 = icmp ne ptr %44, null
  br i1 %45, label %46, label %50

46:                                               ; preds = %41
  %47 = load ptr, ptr %3, align 8
  %48 = getelementptr inbounds nuw %struct._fragment_item, ptr %47, i32 0, i32 5
  %49 = load ptr, ptr %48, align 8
  call void @tvb_free(ptr noundef %49)
  br label %50

50:                                               ; preds = %46, %41
  br label %51

51:                                               ; preds = %50
  %52 = load ptr, ptr %3, align 8
  call void @g_slice_free1(i64 noundef 32, ptr noundef %52)
  br label %53

53:                                               ; preds = %51
  br label %54

54:                                               ; preds = %53
  br label %55

55:                                               ; preds = %54
  %56 = load ptr, ptr %4, align 8
  store ptr %56, ptr %3, align 8
  br label %26, !llvm.loop !36

57:                                               ; preds = %26
  br label %58

58:                                               ; preds = %57
  %59 = load ptr, ptr %2, align 8
  call void @g_slice_free1(i64 noundef 72, ptr noundef %59)
  br label %60

60:                                               ; preds = %58
  br label %61

61:                                               ; preds = %60
  call void @llvm.lifetime.end.p0(i64 8, ptr %4) #16
  call void @llvm.lifetime.end.p0(i64 8, ptr %3) #16
  ret void
}

; Function Attrs: null_pointer_is_valid sspstrong uwtable
define internal void @unref_fd_head(ptr noundef %0) #1 {
  %2 = alloca ptr, align 8
  %3 = alloca ptr, align 8
  store ptr %0, ptr %2, align 8
  call void @llvm.lifetime.start.p0(i64 8, ptr %3) #16
  %4 = load ptr, ptr %2, align 8
  store ptr %4, ptr %3, align 8
  %5 = load ptr, ptr %3, align 8
  %6 = getelementptr inbounds nuw %struct._fragment_head, ptr %5, i32 0, i32 2
  %7 = load i32, ptr %6, align 8
  %8 = add i32 %7, -1
  store i32 %8, ptr %6, align 8
  %9 = load ptr, ptr %3, align 8
  %10 = getelementptr inbounds nuw %struct._fragment_head, ptr %9, i32 0, i32 2
  %11 = load i32, ptr %10, align 8
  %12 = icmp eq i32 %11, 0
  br i1 %12, label %13, label %15

13:                                               ; preds = %1
  %14 = load ptr, ptr %3, align 8
  call void @free_fd_head(ptr noundef %14)
  br label %15

15:                                               ; preds = %13, %1
  call void @llvm.lifetime.end.p0(i64 8, ptr %3) #16
  ret void
}