; Function Attrs: null_pointer_is_valid sspstrong uwtable
define internal void @unref_fd_head(ptr noundef %0) #2 {
  %2 = getelementptr inbounds nuw i8, ptr %0, i64 16
  %3 = load i32, ptr %2, align 8
  %4 = add i32 %3, -1
  store i32 %4, ptr %2, align 8
  %5 = icmp eq i32 %4, 0
  br i1 %5, label %6, label %21

6:                                                ; preds = %1
  %7 = getelementptr inbounds nuw i8, ptr %0, i64 48
  %8 = load i32, ptr %7, align 8
  %9 = and i32 %8, 32
  %.not.i = icmp eq i32 %9, 0
  %.phi.trans.insert.i = getelementptr inbounds nuw i8, ptr %0, i64 56
  br i1 %.not.i, label %10, label %.thread.i

.thread.i:                                        ; preds = %6
  store ptr null, ptr %.phi.trans.insert.i, align 8
  br label %12

10:                                               ; preds = %6
  %.pre.i = load ptr, ptr %.phi.trans.insert.i, align 8
  %.not16.i = icmp eq ptr %.pre.i, null
  br i1 %.not16.i, label %12, label %11

11:                                               ; preds = %10
  tail call void @tvb_free(ptr noundef nonnull %.pre.i)
  br label %12

12:                                               ; preds = %11, %10, %.thread.i
  %13 = load ptr, ptr %0, align 8
  %.not1720.i = icmp eq ptr %13, null
  br i1 %.not1720.i, label %free_fd_head.exit, label %.lr.ph.i

.lr.ph.i:                                         ; preds = %12, %20
  %.021.i = phi ptr [ %14, %20 ], [ %13, %12 ]
  %14 = load ptr, ptr %.021.i, align 8
  %15 = getelementptr inbounds nuw i8, ptr %.021.i, i64 20
  %16 = load i32, ptr %15, align 4
  %17 = and i32 %16, 32
  %.not18.i = icmp eq i32 %17, 0
  %.phi.trans.insert23.i = getelementptr inbounds nuw i8, ptr %.021.i, i64 24
  br i1 %.not18.i, label %18, label %.thread26.i

.thread26.i:                                      ; preds = %.lr.ph.i
  store ptr null, ptr %.phi.trans.insert23.i, align 8
  br label %20

18:                                               ; preds = %.lr.ph.i
  %.pre24.i = load ptr, ptr %.phi.trans.insert23.i, align 8
  %.not19.i = icmp eq ptr %.pre24.i, null
  br i1 %.not19.i, label %20, label %19

19:                                               ; preds = %18
  tail call void @tvb_free(ptr noundef nonnull %.pre24.i)
  br label %20

20:                                               ; preds = %19, %18, %.thread26.i
  tail call void @g_slice_free1(i64 noundef 32, ptr noundef nonnull %.021.i)
  %.not17.i = icmp eq ptr %14, null
  br i1 %.not17.i, label %free_fd_head.exit, label %.lr.ph.i, !llvm.loop !8

free_fd_head.exit:                                ; preds = %20, %12
  tail call void @g_slice_free1(i64 noundef 72, ptr noundef %0)
  br label %21

21:                                               ; preds = %free_fd_head.exit, %1
  ret void
}